; Function Attrs: mustprogress uwtable
define noundef nonnull align 8 dereferenceable(64) ptr @_ZN6icu_7512SelectFormat9toPatternERNS_13UnicodeStringE(ptr noundef nonnull align 8 dereferenceable(456) %this, ptr noundef nonnull returned align 8 dereferenceable(64) %appendTo) local_unnamed_addr #1 align 2 {
entry:
  %partsLength.i = getelementptr inbounds i8, ptr %this, i64 424
  %0 = load i32, ptr %partsLength.i, align 8
  %cmp = icmp eq i32 %0, 0
  br i1 %cmp, label %if.then, label %if.else

if.then:                                          ; preds = %entry
  tail call void @_ZN6icu_7513UnicodeString10setToBogusEv(ptr noundef nonnull align 8 dereferenceable(64) %appendTo)
  br label %if.end

if.else:                                          ; preds = %entry
  %msg.i = getelementptr inbounds i8, ptr %this, i64 344
  %fUnion.i.i.i = getelementptr inbounds i8, ptr %this, i64 352
  %1 = load i16, ptr %fUnion.i.i.i, align 8
  %cmp.i.i.i = icmp slt i16 %1, 0
  %2 = ashr i16 %1, 5
  %shr.i.i.i = sext i16 %2 to i32
  %fLength.i.i = getelementptr inbounds i8, ptr %this, i64 356
  %3 = load i32, ptr %fLength.i.i, align 4
  %cond.i.i = select i1 %cmp.i.i.i, i32 %3, i32 %shr.i.i.i
  %call2.i = tail call noundef nonnull align 8 dereferenceable(64) ptr @_ZN6icu_7513UnicodeString8doAppendERKS0_ii(ptr noundef nonnull align 8 dereferenceable(64) %appendTo, ptr noundef nonnull align 8 dereferenceable(64) %msg.i, i32 noundef 0, i32 noundef %cond.i.i)
  br label %if.end

if.end:                                           ; preds = %if.else, %if.then
  ret ptr %appendTo
}